target datalayout = "e-m:e-p270:32:32-p271:32:32-p272:64:64-i64:64-i128:128-f80:128-n8:16:32:64-S128"
target triple = "x86_64-pc-linux-gnu"

%struct.lean_object = type { i32, i32 }
%struct.lean_ctor_object = type { %struct.lean_object, [0 x ptr] }

; Function Attrs: inlinehint nounwind uwtable
define internal ptr @lean_to_ctor(ptr noundef %0) #0 {
  %2 = alloca ptr, align 8
  store ptr %0, ptr %2, align 8, !tbaa !4
  %3 = load ptr, ptr %2, align 8, !tbaa !4
  ret ptr %3
}

; Function Attrs: inlinehint nounwind uwtable
define internal ptr @lean_ctor_obj_cptr(ptr noundef %0) #0 {
  %2 = alloca ptr, align 8
  store ptr %0, ptr %2, align 8, !tbaa !4
  %3 = load ptr, ptr %2, align 8, !tbaa !4
  %4 = call ptr @lean_to_ctor(ptr noundef %3)
  %5 = getelementptr inbounds nuw %struct.lean_ctor_object, ptr %4, i32 0, i32 1
  %6 = getelementptr inbounds [0 x ptr], ptr %5, i64 0, i64 0
  ret ptr %6
}

; Function Attrs: alwaysinline nounwind uwtable
define internal void @lean_dec_ref(ptr noundef %0) #1 {
  %2 = alloca ptr, align 8
  store ptr %0, ptr %2, align 8, !tbaa !4
  %3 = load ptr, ptr %2, align 8, !tbaa !4
  %4 = getelementptr inbounds nuw %struct.lean_object, ptr %3, i32 0, i32 0
  %5 = load i32, ptr %4, align 4, !tbaa !15
  %6 = icmp sgt i32 %5, 1
  %7 = zext i1 %6 to i32
  %8 = sext i32 %7 to i64
  %9 = call i64 @llvm.expect.i64(i64 %8, i64 1)
  %10 = icmp ne i64 %9, 0
  br i1 %10, label %11, label %16

11:                                               ; preds = %1
  %12 = load ptr, ptr %2, align 8, !tbaa !4
  %13 = getelementptr inbounds nuw %struct.lean_object, ptr %12, i32 0, i32 0
  %14 = load i32, ptr %13, align 4, !tbaa !15
  %15 = add i32 %14, -1
  store i32 %15, ptr %13, align 4, !tbaa !15
  br label %24

16:                                               ; preds = %1
  %17 = load ptr, ptr %2, align 8, !tbaa !4
  %18 = getelementptr inbounds nuw %struct.lean_object, ptr %17, i32 0, i32 0
  %19 = load i32, ptr %18, align 4, !tbaa !15
  %20 = icmp ne i32 %19, 0
  br i1 %20, label %21, label %23

21:                                               ; preds = %16
  %22 = load ptr, ptr %2, align 8, !tbaa !4
  call void @lean_dec_ref_cold(ptr noundef %22)
  br label %23

23:                                               ; preds = %21, %16
  br label %24

24:                                               ; preds = %23, %11
  ret void
}

; Function Attrs: alwaysinline nounwind uwtable
define internal zeroext i1 @lean_is_scalar(ptr noundef %0) #1 {
  %2 = alloca ptr, align 8
  store ptr %0, ptr %2, align 8, !tbaa !4
  %3 = load ptr, ptr %2, align 8, !tbaa !4
  %4 = ptrtoint ptr %3 to i64
  %5 = and i64 %4, 1
  %6 = icmp eq i64 %5, 1
  ret i1 %6
}

; Function Attrs: inlinehint nounwind uwtable
define internal zeroext i8 @lean_ctor_get_uint8(ptr noundef %0, i32 noundef %1) #0 {
  %3 = alloca ptr, align 8
  %4 = alloca i32, align 4
  store ptr %0, ptr %3, align 8, !tbaa !4
  store i32 %1, ptr %4, align 4, !tbaa !10
  %5 = load ptr, ptr %3, align 8, !tbaa !4
  %6 = call ptr @lean_ctor_obj_cptr(ptr noundef %5)
  %7 = load i32, ptr %4, align 4, !tbaa !10
  %8 = zext i32 %7 to i64
  %9 = getelementptr inbounds nuw i8, ptr %6, i64 %8
  %10 = load i8, ptr %9, align 1, !tbaa !12
  ret i8 %10
}

; Function Attrs: inlinehint nounwind uwtable
define internal ptr @lean_ctor_get(ptr noundef %0, i32 noundef %1) #0 {
  %3 = alloca ptr, align 8
  %4 = alloca i32, align 4
  store ptr %0, ptr %3, align 8, !tbaa !4
  store i32 %1, ptr %4, align 4, !tbaa !10
  %5 = load ptr, ptr %3, align 8, !tbaa !4
  %6 = call ptr @lean_ctor_obj_cptr(ptr noundef %5)
  %7 = load i32, ptr %4, align 4, !tbaa !10
  %8 = zext i32 %7 to i64
  %9 = getelementptr inbounds nuw ptr, ptr %6, i64 %8
  %10 = load ptr, ptr %9, align 8, !tbaa !4
  ret ptr %10
}

; Function Attrs: inlinehint nounwind uwtable
define internal ptr @lean_box(i64 noundef %0) #0 {
  %2 = alloca i64, align 8
  store i64 %0, ptr %2, align 8, !tbaa !8
  %3 = load i64, ptr %2, align 8, !tbaa !8
  %4 = shl i64 %3, 1
  %5 = or i64 %4, 1
  %6 = inttoptr i64 %5 to ptr
  ret ptr %6
}

; Function Attrs: alwaysinline nounwind uwtable
define internal void @lean_dec(ptr noundef %0) #1 {
  %2 = alloca ptr, align 8
  store ptr %0, ptr %2, align 8, !tbaa !4
  %3 = load ptr, ptr %2, align 8, !tbaa !4
  %4 = call zeroext i1 @lean_is_scalar(ptr noundef %3)
  br i1 %4, label %7, label %5

5:                                                ; preds = %1
  %6 = load ptr, ptr %2, align 8, !tbaa !4
  call void @lean_dec_ref(ptr noundef %6)
  br label %7

7:                                                ; preds = %5, %1
  ret void
}

; Function Attrs: nounwind uwtable
define zeroext i8 @l_Lean_Server_FileWorker_beqAbsoluteLspSemanticToken____x40_Lean_Server_FileWorker_SemanticHighlighting___hyg_96_(ptr noundef %0, ptr noundef %1) #2 {
  %3 = alloca i8, align 1
  %4 = alloca ptr, align 8
  %5 = alloca ptr, align 8
  %6 = alloca ptr, align 8
  %7 = alloca ptr, align 8
  %8 = alloca i8, align 1
  %9 = alloca ptr, align 8
  %10 = alloca ptr, align 8
  %11 = alloca i8, align 1
  %12 = alloca i8, align 1
  %13 = alloca i8, align 1
  %14 = alloca i32, align 4
  %15 = alloca i8, align 1
  %16 = alloca i8, align 1
  %17 = alloca i8, align 1
  store ptr %0, ptr %4, align 8, !tbaa !4
  store ptr %1, ptr %5, align 8, !tbaa !4
  br label %18

18:                                               ; preds = %2
  call void @llvm.lifetime.start.p0(i64 8, ptr %6) #8
  call void @llvm.lifetime.start.p0(i64 8, ptr %7) #8
  call void @llvm.lifetime.start.p0(i64 1, ptr %8) #8
  call void @llvm.lifetime.start.p0(i64 8, ptr %9) #8
  call void @llvm.lifetime.start.p0(i64 8, ptr %10) #8
  call void @llvm.lifetime.start.p0(i64 1, ptr %11) #8
  call void @llvm.lifetime.start.p0(i64 1, ptr %12) #8
  %19 = load ptr, ptr %4, align 8, !tbaa !4
  %20 = call ptr @lean_ctor_get(ptr noundef %19, i32 noundef 0)
  store ptr %20, ptr %6, align 8, !tbaa !4
  %21 = load ptr, ptr %4, align 8, !tbaa !4
  %22 = call ptr @lean_ctor_get(ptr noundef %21, i32 noundef 1)
  store ptr %22, ptr %7, align 8, !tbaa !4
  %23 = load ptr, ptr %4, align 8, !tbaa !4
  %24 = call zeroext i8 @lean_ctor_get_uint8(ptr noundef %23, i32 noundef 16)
  store i8 %24, ptr %8, align 1, !tbaa !12
  %25 = load ptr, ptr %5, align 8, !tbaa !4
  %26 = call ptr @lean_ctor_get(ptr noundef %25, i32 noundef 0)
  store ptr %26, ptr %9, align 8, !tbaa !4
  %27 = load ptr, ptr %5, align 8, !tbaa !4
  %28 = call ptr @lean_ctor_get(ptr noundef %27, i32 noundef 1)
  store ptr %28, ptr %10, align 8, !tbaa !4
  %29 = load ptr, ptr %5, align 8, !tbaa !4
  %30 = call zeroext i8 @lean_ctor_get_uint8(ptr noundef %29, i32 noundef 16)
  store i8 %30, ptr %11, align 1, !tbaa !12
  %31 = load ptr, ptr %6, align 8, !tbaa !4
  %32 = load ptr, ptr %9, align 8, !tbaa !4
  %33 = call zeroext i8 @l_Lean_Lsp_beqPosition____x40_Lean_Data_Lsp_Basic___hyg_41_(ptr noundef %31, ptr noundef %32)
  store i8 %33, ptr %12, align 1, !tbaa !12
  %34 = load i8, ptr %12, align 1, !tbaa !12
  %35 = zext i8 %34 to i32
  %36 = icmp eq i32 %35, 0
  br i1 %36, label %37, label %39

37:                                               ; preds = %18
  call void @llvm.lifetime.start.p0(i64 1, ptr %13) #8
  store i8 0, ptr %13, align 1, !tbaa !12
  %38 = load i8, ptr %13, align 1, !tbaa !12
  store i8 %38, ptr %3, align 1
  store i32 1, ptr %14, align 4
  call void @llvm.lifetime.end.p0(i64 1, ptr %13) #8
  br label %54

39:                                               ; preds = %18
  call void @llvm.lifetime.start.p0(i64 1, ptr %15) #8
  %40 = load ptr, ptr %7, align 8, !tbaa !4
  %41 = load ptr, ptr %10, align 8, !tbaa !4
  %42 = call zeroext i8 @l_Lean_Lsp_beqPosition____x40_Lean_Data_Lsp_Basic___hyg_41_(ptr noundef %40, ptr noundef %41)
  store i8 %42, ptr %15, align 1, !tbaa !12
  %43 = load i8, ptr %15, align 1, !tbaa !12
  %44 = zext i8 %43 to i32
  %45 = icmp eq i32 %44, 0
  br i1 %45, label %46, label %48

46:                                               ; preds = %39
  call void @llvm.lifetime.start.p0(i64 1, ptr %16) #8
  store i8 0, ptr %16, align 1, !tbaa !12
  %47 = load i8, ptr %16, align 1, !tbaa !12
  store i8 %47, ptr %3, align 1
  store i32 1, ptr %14, align 4
  call void @llvm.lifetime.end.p0(i64 1, ptr %16) #8
  br label %53

48:                                               ; preds = %39
  call void @llvm.lifetime.start.p0(i64 1, ptr %17) #8
  %49 = load i8, ptr %8, align 1, !tbaa !12
  %50 = load i8, ptr %11, align 1, !tbaa !12
  %51 = call zeroext i8 @l_Lean_Lsp_beqSemanticTokenType____x40_Lean_Data_Lsp_LanguageFeatures___hyg_8921_(i8 noundef zeroext %49, i8 noundef zeroext %50)
  store i8 %51, ptr %17, align 1, !tbaa !12
  %52 = load i8, ptr %17, align 1, !tbaa !12
  store i8 %52, ptr %3, align 1
  store i32 1, ptr %14, align 4
  call void @llvm.lifetime.end.p0(i64 1, ptr %17) #8
  br label %53

53:                                               ; preds = %48, %46
  call void @llvm.lifetime.end.p0(i64 1, ptr %15) #8
  br label %54

54:                                               ; preds = %53, %37
  call void @llvm.lifetime.end.p0(i64 1, ptr %12) #8
  call void @llvm.lifetime.end.p0(i64 1, ptr %11) #8
  call void @llvm.lifetime.end.p0(i64 8, ptr %10) #8
  call void @llvm.lifetime.end.p0(i64 8, ptr %9) #8
  call void @llvm.lifetime.end.p0(i64 1, ptr %8) #8
  call void @llvm.lifetime.end.p0(i64 8, ptr %7) #8
  call void @llvm.lifetime.end.p0(i64 8, ptr %6) #8
  %55 = load i8, ptr %3, align 1
  ret i8 %55
}

; Function Attrs: nounwind uwtable
define ptr @l_Lean_Server_FileWorker_beqAbsoluteLspSemanticToken____x40_Lean_Server_FileWorker_SemanticHighlighting___hyg_96____boxed(ptr noundef %0, ptr noundef %1) #2 {
  %3 = alloca ptr, align 8
  %4 = alloca ptr, align 8
  %5 = alloca i8, align 1
  %6 = alloca ptr, align 8
  store ptr %0, ptr %3, align 8, !tbaa !4
  store ptr %1, ptr %4, align 8, !tbaa !4
  br label %7

7:                                                ; preds = %2
  call void @llvm.lifetime.start.p0(i64 1, ptr %5) #8
  call void @llvm.lifetime.start.p0(i64 8, ptr %6) #8
  %8 = load ptr, ptr %3, align 8, !tbaa !4
  %9 = load ptr, ptr %4, align 8, !tbaa !4
  %10 = call zeroext i8 @l_Lean_Server_FileWorker_beqAbsoluteLspSemanticToken____x40_Lean_Server_FileWorker_SemanticHighlighting___hyg_96_(ptr noundef %8, ptr noundef %9)
  store i8 %10, ptr %5, align 1, !tbaa !12
  %11 = load ptr, ptr %4, align 8, !tbaa !4
  call void @lean_dec(ptr noundef %11)
  %12 = load ptr, ptr %3, align 8, !tbaa !4
  call void @lean_dec(ptr noundef %12)
  %13 = load i8, ptr %5, align 1, !tbaa !12
  %14 = zext i8 %13 to i64
  %15 = call ptr @lean_box(i64 noundef %14)
  store ptr %15, ptr %6, align 8, !tbaa !4
  %16 = load ptr, ptr %6, align 8, !tbaa !4
  call void @llvm.lifetime.end.p0(i64 8, ptr %6) #8
  call void @llvm.lifetime.end.p0(i64 1, ptr %5) #8
  ret ptr %16
}